#include <math.h>
#include <stdio.h>
#include <stdlib.h>
#include <string.h>
#include <iostream>
using namespace std;

/*
 * Fibonacci.cpp
 *
 *  Created on: 2012-10-17
 *      Author: Cui Zhaoxiong Class4 1200012931
 */
int main(){
	int array[20];
	array[0]=1;
	array[1]=1;
	for (int i=2;i<20;i++){
		array[i]=array[i-1]+array[i-2];
	}										//????????
	int n=0;
	cin >>n;
	for (int i=1;i<=n;i++){
		int p=0;
		cin >>p;
		cout <<array[p-1] <<endl;			//??????????
	}
	return 0;
}
